; Function Attrs: nounwind uwtable
define internal ptr @pyobject_print_os_error(ptr readnone captures(none) %0, ptr noundef %1) #0 {
  %3 = alloca ptr, align 8
  call void @llvm.lifetime.start.p0(i64 8, ptr nonnull %3) #5
  %4 = tail call ptr @PyUnicode_FromString(ptr noundef nonnull @.str.21) #5
  %5 = call i32 (ptr, ptr, i64, i64, ...) @PyArg_UnpackTuple(ptr noundef %1, ptr noundef nonnull @.str, i64 noundef 1, i64 noundef 1, ptr noundef nonnull %3) #5
  %.not = icmp eq i32 %5, 0
  br i1 %.not, label %17, label %6

6:                                                ; preds = %2
  %7 = load ptr, ptr %3, align 8, !tbaa !3
  %8 = call ptr @Py_fopen(ptr noundef %7, ptr noundef nonnull @.str.25) #5
  %9 = call i32 @PyObject_Print(ptr noundef %4, ptr noundef %8, i32 noundef 0) #5
  %10 = icmp slt i32 %9, 0
  %11 = call i32 @fclose(ptr noundef %8)
  %12 = load i32, ptr %4, align 8, !tbaa !8
  %.not.i = icmp sgt i32 %12, -1
  br i1 %.not.i, label %13, label %Py_DECREF.exit

13:                                               ; preds = %6
  %14 = add nsw i32 %12, -1
  store i32 %14, ptr %4, align 8, !tbaa !8
  %15 = icmp eq i32 %14, 0
  br i1 %15, label %16, label %Py_DECREF.exit

16:                                               ; preds = %13
  call void @_Py_Dealloc(ptr noundef nonnull %4) #5
  br label %Py_DECREF.exit

Py_DECREF.exit:                                   ; preds = %6, %13, %16
  %._Py_NoneStruct = select i1 %10, ptr null, ptr @_Py_NoneStruct
  br label %17

17:                                               ; preds = %Py_DECREF.exit, %2
  %.0 = phi ptr [ null, %2 ], [ %._Py_NoneStruct, %Py_DECREF.exit ]
  call void @llvm.lifetime.end.p0(i64 8, ptr nonnull %3) #5
  ret ptr %.0
}